; Function Attrs: mustprogress uwtable
define hidden void @_ZN11mpf_manager7mk_ninfEjjR3mpf(ptr noundef nonnull align 8 dereferenceable(840) %this, i32 noundef %ebits, i32 noundef %sbits, ptr nocapture noundef nonnull align 8 dereferenceable(32) %o) local_unnamed_addr #5 align 2 {
entry:
  %bf.value.i = shl i32 %sbits, 15
  %bf.value3.i = and i32 %ebits, 32767
  %bf.clear9.i = or disjoint i32 %bf.value.i, %bf.value3.i
  %bf.set10.i = or i32 %bf.clear9.i, -2147483648
  store i32 %bf.set10.i, ptr %o, align 8
  %m_mpz_manager.i.i = getelementptr inbounds i8, ptr %this, i64 728
  %0 = load ptr, ptr %m_mpz_manager.i.i, align 8
  %m_powers2.i.i = getelementptr inbounds i8, ptr %this, i64 736
  %sub.i.i = add i32 %ebits, -1
  %call.i.i = tail call noundef nonnull align 8 dereferenceable(16) ptr @_ZN11mpf_manager7powers2clEjb(ptr noundef nonnull align 8 dereferenceable(104) %m_powers2.i.i, i32 noundef %sub.i.i, i1 noundef zeroext false)
  %call2.i.i = tail call noundef i64 @_ZNK11mpz_managerILb0EE9get_int64ERK3mpz(ptr noundef nonnull align 8 dereferenceable(600) %0, ptr noundef nonnull align 8 dereferenceable(16) %call.i.i)
  %exponent.i = getelementptr inbounds i8, ptr %o, i64 24
  store i64 %call2.i.i, ptr %exponent.i, align 8
  %significand.i = getelementptr inbounds i8, ptr %o, i64 8
  store i32 0, ptr %significand.i, align 8
  %m_kind.i.i = getelementptr inbounds i8, ptr %o, i64 12
  %bf.load.i.i = load i8, ptr %m_kind.i.i, align 4
  %bf.clear.i.i = and i8 %bf.load.i.i, -2
  store i8 %bf.clear.i.i, ptr %m_kind.i.i, align 4
  ret void
}